target datalayout = "e-m:e-p270:32:32-p271:32:32-p272:64:64-i64:64-i128:128-f80:128-n8:16:32:64-S128"
target triple = "x86_64-pc-linux-gnu"

%"class.datalog::table_signature" = type <{ %"class.datalog::tr_infrastructure<datalog::table_traits>::signature_base", i32, [4 x i8] }>
%"class.datalog::tr_infrastructure<datalog::table_traits>::signature_base" = type { %class.svector.134 }
%class.svector.134 = type { %class.vector.135 }
%class.vector.135 = type { ptr }
%"class.datalog::tr_infrastructure<datalog::table_traits>::base_ancestor" = type <{ ptr, ptr, %"class.datalog::table_signature", i32, [4 x i8] }>
%"class.datalog::tr_infrastructure<datalog::table_traits>::base_fn" = type { ptr }
%"class.datalog::tr_infrastructure<datalog::table_traits>::transformer_fn" = type { %"class.datalog::tr_infrastructure<datalog::table_traits>::base_fn" }
%class.scoped_ptr.191 = type { ptr }
%"class.datalog::tr_infrastructure<datalog::table_traits>::mutator_fn" = type { %"class.datalog::tr_infrastructure<datalog::table_traits>::base_fn" }
%"class.datalog::relation_manager::auxiliary_table_filter_fn" = type { ptr, %class.svector.134, %class.svector.134 }
%"class.datalog::relation_manager::default_table_filter_equal_fn" = type <{ %"class.datalog::tr_infrastructure<datalog::table_traits>::mutator_fn", %"class.datalog::relation_manager::auxiliary_table_filter_fn", i64, i32, [4 x i8] }>
%class.scoped_ptr.194 = type { ptr }
%"class.datalog::relation_manager::default_table_select_equal_and_project_fn" = type { %"class.datalog::tr_infrastructure<datalog::table_traits>::transformer_fn", %class.scoped_ptr.194, %class.scoped_ptr.191 }

; Function Attrs: mustprogress nounwind uwtable
define linkonce_odr hidden void @_ZN6vectorImLb0EjEC2Ev(ptr noundef nonnull align 8 dereferenceable(8) %0) unnamed_addr #4 comdat align 2 {
  %2 = alloca ptr, align 8
  store ptr %0, ptr %2, align 8, !tbaa !409
  %3 = load ptr, ptr %2, align 8
  %4 = getelementptr inbounds nuw %class.vector.135, ptr %3, i32 0, i32 0
  store ptr null, ptr %4, align 8, !tbaa !412
  ret void
}

; Function Attrs: mustprogress nounwind uwtable
define linkonce_odr hidden void @_ZN7svectorImjEC2Ev(ptr noundef nonnull align 8 dereferenceable(8) %0) unnamed_addr #4 comdat align 2 {
  %2 = alloca ptr, align 8
  store ptr %0, ptr %2, align 8, !tbaa !415
  %3 = load ptr, ptr %2, align 8
  call void @_ZN6vectorImLb0EjEC2Ev(ptr noundef nonnull align 8 dereferenceable(8) %3) #3
  ret void
}

; Function Attrs: noinline noreturn nounwind uwtable
define linkonce_odr hidden void @__clang_call_terminate(ptr noundef %0) #6 comdat {
  %2 = call ptr @__cxa_begin_catch(ptr %0) #3
  call void @_ZSt9terminatev() #21
  unreachable
}

; Function Attrs: mustprogress uwtable
define linkonce_odr hidden void @_Z7deallocIN7datalog17tr_infrastructureINS0_12table_traitsEE10mutator_fnEEvPT_(ptr noundef %0) #5 comdat {
  %2 = alloca ptr, align 8
  store ptr %0, ptr %2, align 8, !tbaa !532
  %3 = load ptr, ptr %2, align 8, !tbaa !532
  %4 = icmp eq ptr %3, null
  br i1 %4, label %5, label %6

5:                                                ; preds = %1
  br label %12

6:                                                ; preds = %1
  %7 = load ptr, ptr %2, align 8, !tbaa !532
  %8 = load ptr, ptr %7, align 8, !tbaa !8
  %9 = getelementptr inbounds ptr, ptr %8, i64 0
  %10 = load ptr, ptr %9, align 8
  call void %10(ptr noundef nonnull align 8 dereferenceable(8) %7) #3
  %11 = load ptr, ptr %2, align 8, !tbaa !532
  call void @_ZN6memory10deallocateEPv(ptr noundef %11)
  br label %12

12:                                               ; preds = %6, %5
  ret void
}

; Function Attrs: mustprogress nounwind uwtable
define linkonce_odr hidden void @_ZN7datalog17tr_infrastructureINS_12table_traitsEE7base_fnC2Ev(ptr noundef nonnull align 8 dereferenceable(8) %0) unnamed_addr #4 comdat align 2 {
  %2 = alloca ptr, align 8
  store ptr %0, ptr %2, align 8, !tbaa !704
  %3 = load ptr, ptr %2, align 8
  store ptr getelementptr inbounds inrange(-16, 16) ({ [4 x ptr] }, ptr @_ZTVN7datalog17tr_infrastructureINS_12table_traitsEE7base_fnE, i32 0, i32 0, i32 2), ptr %3, align 8, !tbaa !8
  ret void
}

; Function Attrs: inlinehint mustprogress nounwind uwtable
define linkonce_odr hidden void @_ZN7datalog16relation_manager25auxiliary_table_filter_fnC2Ev(ptr noundef nonnull align 8 dereferenceable(24) %0) unnamed_addr #7 comdat align 2 {
  %2 = alloca ptr, align 8
  store ptr %0, ptr %2, align 8, !tbaa !742
  %3 = load ptr, ptr %2, align 8
  store ptr getelementptr inbounds inrange(-16, 24) ({ [5 x ptr] }, ptr @_ZTVN7datalog16relation_manager25auxiliary_table_filter_fnE, i32 0, i32 0, i32 2), ptr %3, align 8, !tbaa !8
  %4 = getelementptr inbounds nuw %"class.datalog::relation_manager::auxiliary_table_filter_fn", ptr %3, i32 0, i32 1
  call void @_ZN7svectorImjEC2Ev(ptr noundef nonnull align 8 dereferenceable(8) %4) #3
  %5 = getelementptr inbounds nuw %"class.datalog::relation_manager::auxiliary_table_filter_fn", ptr %3, i32 0, i32 2
  call void @_ZN7svectorImjEC2Ev(ptr noundef nonnull align 8 dereferenceable(8) %5) #3
  ret void
}

; Function Attrs: inlinehint mustprogress nounwind uwtable
define linkonce_odr hidden void @_ZN7datalog17tr_infrastructureINS_12table_traitsEE10mutator_fnC2Ev(ptr noundef nonnull align 8 dereferenceable(8) %0) unnamed_addr #7 comdat align 2 {
  %2 = alloca ptr, align 8
  store ptr %0, ptr %2, align 8, !tbaa !532
  %3 = load ptr, ptr %2, align 8
  call void @_ZN7datalog17tr_infrastructureINS_12table_traitsEE7base_fnC2Ev(ptr noundef nonnull align 8 dereferenceable(8) %3) #3
  store ptr getelementptr inbounds inrange(-16, 40) ({ [7 x ptr] }, ptr @_ZTVN7datalog17tr_infrastructureINS_12table_traitsEE10mutator_fnE, i32 0, i32 0, i32 2), ptr %3, align 8, !tbaa !8
  ret void
}

; Function Attrs: mustprogress nounwind uwtable
define linkonce_odr hidden void @_ZN7datalog17tr_infrastructureINS_12table_traitsEE7base_fnD2Ev(ptr noundef nonnull align 8 dereferenceable(8) %0) unnamed_addr #4 comdat align 2 {
  %2 = alloca ptr, align 8
  store ptr %0, ptr %2, align 8, !tbaa !704
  ret void
}

; Function Attrs: mustprogress nounwind uwtable
define linkonce_odr hidden void @_ZN10scoped_ptrIN7datalog17tr_infrastructureINS0_12table_traitsEE10mutator_fnEED2Ev(ptr noundef nonnull align 8 dereferenceable(8) %0) unnamed_addr #4 comdat align 2 personality ptr @__gxx_personality_v0 {
  %2 = alloca ptr, align 8
  store ptr %0, ptr %2, align 8, !tbaa !862
  %3 = load ptr, ptr %2, align 8
  %4 = getelementptr inbounds nuw %class.scoped_ptr.194, ptr %3, i32 0, i32 0
  %5 = load ptr, ptr %4, align 8, !tbaa !864
  invoke void @_Z7deallocIN7datalog17tr_infrastructureINS0_12table_traitsEE10mutator_fnEEvPT_(ptr noundef %5)
          to label %6 unwind label %7

6:                                                ; preds = %1
  ret void

7:                                                ; preds = %1
  %8 = landingpad { ptr, i32 }
          catch ptr null
  %9 = extractvalue { ptr, i32 } %8, 0
  call void @__clang_call_terminate(ptr %9) #21
  unreachable
}

; Function Attrs: mustprogress nounwind uwtable
define linkonce_odr hidden void @_ZN10scoped_ptrIN7datalog17tr_infrastructureINS0_12table_traitsEE14transformer_fnEEC2EPS4_(ptr noundef nonnull align 8 dereferenceable(8) %0, ptr noundef %1) unnamed_addr #4 comdat align 2 {
  %3 = alloca ptr, align 8
  %4 = alloca ptr, align 8
  store ptr %0, ptr %3, align 8, !tbaa !730
  store ptr %1, ptr %4, align 8, !tbaa !510
  %5 = load ptr, ptr %3, align 8
  %6 = getelementptr inbounds nuw %class.scoped_ptr.191, ptr %5, i32 0, i32 0
  %7 = load ptr, ptr %4, align 8, !tbaa !510
  store ptr %7, ptr %6, align 8, !tbaa !732
  ret void
}

; Function Attrs: mustprogress nounwind uwtable
define linkonce_odr hidden void @_ZN10scoped_ptrIN7datalog17tr_infrastructureINS0_12table_traitsEE10mutator_fnEEC2EPS4_(ptr noundef nonnull align 8 dereferenceable(8) %0, ptr noundef %1) unnamed_addr #4 comdat align 2 {
  %3 = alloca ptr, align 8
  %4 = alloca ptr, align 8
  store ptr %0, ptr %3, align 8, !tbaa !862
  store ptr %1, ptr %4, align 8, !tbaa !532
  %5 = load ptr, ptr %3, align 8
  %6 = getelementptr inbounds nuw %class.scoped_ptr.194, ptr %5, i32 0, i32 0
  %7 = load ptr, ptr %4, align 8, !tbaa !532
  store ptr %7, ptr %6, align 8, !tbaa !864
  ret void
}

; Function Attrs: inlinehint mustprogress nounwind uwtable
define linkonce_odr hidden void @_ZN7datalog17tr_infrastructureINS_12table_traitsEE14transformer_fnC2Ev(ptr noundef nonnull align 8 dereferenceable(8) %0) unnamed_addr #7 comdat align 2 {
  %2 = alloca ptr, align 8
  store ptr %0, ptr %2, align 8, !tbaa !510
  %3 = load ptr, ptr %2, align 8
  call void @_ZN7datalog17tr_infrastructureINS_12table_traitsEE7base_fnC2Ev(ptr noundef nonnull align 8 dereferenceable(8) %3) #3
  store ptr getelementptr inbounds inrange(-16, 24) ({ [5 x ptr] }, ptr @_ZTVN7datalog17tr_infrastructureINS_12table_traitsEE14transformer_fnE, i32 0, i32 0, i32 2), ptr %3, align 8, !tbaa !8
  ret void
}

; Function Attrs: mustprogress nounwind uwtable
define linkonce_odr hidden void @_ZN7datalog16relation_manager29default_table_filter_equal_fnC2ERKmj(ptr noundef nonnull align 8 dereferenceable(44) %0, ptr noundef nonnull align 8 dereferenceable(8) %1, i32 noundef %2) unnamed_addr #4 comdat align 2 {
  %4 = alloca ptr, align 8
  %5 = alloca ptr, align 8
  %6 = alloca i32, align 4
  store ptr %0, ptr %4, align 8, !tbaa !540
  store ptr %1, ptr %5, align 8, !tbaa !390
  store i32 %2, ptr %6, align 4, !tbaa !279
  %7 = load ptr, ptr %4, align 8
  call void @_ZN7datalog17tr_infrastructureINS_12table_traitsEE10mutator_fnC2Ev(ptr noundef nonnull align 8 dereferenceable(8) %7) #3
  %8 = getelementptr inbounds i8, ptr %7, i64 8
  call void @_ZN7datalog16relation_manager25auxiliary_table_filter_fnC2Ev(ptr noundef nonnull align 8 dereferenceable(24) %8) #3
  store ptr getelementptr inbounds inrange(-16, 48) ({ [8 x ptr], [5 x ptr] }, ptr @_ZTVN7datalog16relation_manager29default_table_filter_equal_fnE, i32 0, i32 0, i32 2), ptr %7, align 8, !tbaa !8
  %9 = getelementptr inbounds i8, ptr %7, i64 8
  store ptr getelementptr inbounds inrange(-16, 24) ({ [8 x ptr], [5 x ptr] }, ptr @_ZTVN7datalog16relation_manager29default_table_filter_equal_fnE, i32 0, i32 1, i32 2), ptr %9, align 8, !tbaa !8
  %10 = getelementptr inbounds nuw %"class.datalog::relation_manager::default_table_filter_equal_fn", ptr %7, i32 0, i32 2
  %11 = load ptr, ptr %5, align 8, !tbaa !390
  %12 = load i64, ptr %11, align 8, !tbaa !392
  store i64 %12, ptr %10, align 8, !tbaa !542
  %13 = getelementptr inbounds nuw %"class.datalog::relation_manager::default_table_filter_equal_fn", ptr %7, i32 0, i32 3
  %14 = load i32, ptr %6, align 4, !tbaa !279
  store i32 %14, ptr %13, align 8, !tbaa !544
  ret void
}

; Function Attrs: mustprogress uwtable
define linkonce_odr hidden void @_ZN7datalog16relation_manager41default_table_select_equal_and_project_fnC2EPNS_17tr_infrastructureINS_12table_traitsEE10mutator_fnEPNS4_14transformer_fnE(ptr noundef nonnull align 8 dereferenceable(24) %0, ptr noundef %1, ptr noundef %2) unnamed_addr #5 comdat align 2 personality ptr @__gxx_personality_v0 {
  %4 = alloca ptr, align 8
  %5 = alloca ptr, align 8
  %6 = alloca ptr, align 8
  %7 = alloca ptr, align 8
  %8 = alloca i32, align 4
  store ptr %0, ptr %4, align 8, !tbaa !562
  store ptr %1, ptr %5, align 8, !tbaa !532
  store ptr %2, ptr %6, align 8, !tbaa !510
  %9 = load ptr, ptr %4, align 8
  call void @_ZN7datalog17tr_infrastructureINS_12table_traitsEE14transformer_fnC2Ev(ptr noundef nonnull align 8 dereferenceable(8) %9) #3
  store ptr getelementptr inbounds inrange(-16, 24) ({ [5 x ptr] }, ptr @_ZTVN7datalog16relation_manager41default_table_select_equal_and_project_fnE, i32 0, i32 0, i32 2), ptr %9, align 8, !tbaa !8
  %10 = getelementptr inbounds nuw %"class.datalog::relation_manager::default_table_select_equal_and_project_fn", ptr %9, i32 0, i32 1
  %11 = load ptr, ptr %5, align 8, !tbaa !532
  invoke void @_ZN10scoped_ptrIN7datalog17tr_infrastructureINS0_12table_traitsEE10mutator_fnEEC2EPS4_(ptr noundef nonnull align 8 dereferenceable(8) %10, ptr noundef %11)
          to label %12 unwind label %16

12:                                               ; preds = %3
  %13 = getelementptr inbounds nuw %"class.datalog::relation_manager::default_table_select_equal_and_project_fn", ptr %9, i32 0, i32 2
  %14 = load ptr, ptr %6, align 8, !tbaa !510
  invoke void @_ZN10scoped_ptrIN7datalog17tr_infrastructureINS0_12table_traitsEE14transformer_fnEEC2EPS4_(ptr noundef nonnull align 8 dereferenceable(8) %13, ptr noundef %14)
          to label %15 unwind label %20

15:                                               ; preds = %12
  ret void

16:                                               ; preds = %3
  %17 = landingpad { ptr, i32 }
          cleanup
  %18 = extractvalue { ptr, i32 } %17, 0
  store ptr %18, ptr %7, align 8
  %19 = extractvalue { ptr, i32 } %17, 1
  store i32 %19, ptr %8, align 4
  br label %24

20:                                               ; preds = %12
  %21 = landingpad { ptr, i32 }
          cleanup
  %22 = extractvalue { ptr, i32 } %21, 0
  store ptr %22, ptr %7, align 8
  %23 = extractvalue { ptr, i32 } %21, 1
  store i32 %23, ptr %8, align 4
  call void @_ZN10scoped_ptrIN7datalog17tr_infrastructureINS0_12table_traitsEE10mutator_fnEED2Ev(ptr noundef nonnull align 8 dereferenceable(8) %10) #3
  br label %24

24:                                               ; preds = %20, %16
  call void @_ZN7datalog17tr_infrastructureINS_12table_traitsEE7base_fnD2Ev(ptr noundef nonnull align 8 dereferenceable(8) %9) #3
  br label %25

25:                                               ; preds = %24
  %26 = load ptr, ptr %7, align 8
  %27 = load i32, ptr %8, align 4
  %28 = insertvalue { ptr, i32 } poison, ptr %26, 0
  %29 = insertvalue { ptr, i32 } %28, i32 %27, 1
  resume { ptr, i32 } %29
}

; Function Attrs: mustprogress uwtable
define hidden noundef ptr @_ZN7datalog16relation_manager18mk_filter_equal_fnERKNS_10table_baseERKmj(ptr noundef nonnull align 8 dereferenceable(200) %0, ptr noundef nonnull align 8 dereferenceable(36) %1, ptr noundef nonnull align 8 dereferenceable(8) %2, i32 noundef %3) #5 align 2 {
  %5 = alloca ptr, align 8
  %6 = alloca ptr, align 8
  %7 = alloca ptr, align 8
  %8 = alloca i32, align 4
  %9 = alloca ptr, align 8
  store ptr %0, ptr %5, align 8, !tbaa !3
  store ptr %1, ptr %6, align 8, !tbaa !375
  store ptr %2, ptr %7, align 8, !tbaa !390
  store i32 %3, ptr %8, align 4, !tbaa !279
  call void @llvm.lifetime.start.p0(i64 8, ptr %9) #3
  %10 = load ptr, ptr %6, align 8, !tbaa !375
  %11 = call noundef nonnull align 8 dereferenceable(32) ptr @_ZNK7datalog17tr_infrastructureINS_12table_traitsEE13base_ancestor10get_pluginEv(ptr noundef nonnull align 8 dereferenceable(36) %10)
  %12 = load ptr, ptr %6, align 8, !tbaa !375
  %13 = load ptr, ptr %7, align 8, !tbaa !390
  %14 = load i32, ptr %8, align 4, !tbaa !279
  %15 = load ptr, ptr %11, align 8, !tbaa !8
  %16 = getelementptr inbounds ptr, ptr %15, i64 18
  %17 = load ptr, ptr %16, align 8
  %18 = call noundef ptr %17(ptr noundef nonnull align 8 dereferenceable(32) %11, ptr noundef nonnull align 8 dereferenceable(36) %12, ptr noundef nonnull align 8 dereferenceable(8) %13, i32 noundef %14)
  store ptr %18, ptr %9, align 8, !tbaa !532
  %19 = load ptr, ptr %9, align 8, !tbaa !532
  %20 = icmp ne ptr %19, null
  br i1 %20, label %25, label %21

21:                                               ; preds = %4
  %22 = call noalias noundef ptr @_ZN6memory8allocateEm(i64 noundef 48)
  %23 = load ptr, ptr %7, align 8, !tbaa !390
  %24 = load i32, ptr %8, align 4, !tbaa !279
  call void @_ZN7datalog16relation_manager29default_table_filter_equal_fnC2ERKmj(ptr noundef nonnull align 8 dereferenceable(44) %22, ptr noundef nonnull align 8 dereferenceable(8) %23, i32 noundef %24)
  store ptr %22, ptr %9, align 8, !tbaa !532
  br label %25

25:                                               ; preds = %21, %4
  %26 = load ptr, ptr %9, align 8, !tbaa !532
  call void @llvm.lifetime.end.p0(i64 8, ptr %9) #3
  ret ptr %26
}

; Function Attrs: mustprogress nounwind uwtable
define linkonce_odr hidden noundef nonnull align 8 dereferenceable(32) ptr @_ZNK7datalog17tr_infrastructureINS_12table_traitsEE13base_ancestor10get_pluginEv(ptr noundef nonnull align 8 dereferenceable(36) %0) #4 comdat align 2 {
  %2 = alloca ptr, align 8
  store ptr %0, ptr %2, align 8, !tbaa !377
  %3 = load ptr, ptr %2, align 8
  %4 = getelementptr inbounds nuw %"class.datalog::tr_infrastructure<datalog::table_traits>::base_ancestor", ptr %3, i32 0, i32 1
  %5 = load ptr, ptr %4, align 8, !tbaa !379
  ret ptr %5
}

; Function Attrs: mustprogress uwtable
define hidden noundef ptr @_ZN7datalog16relation_manager30mk_select_equal_and_project_fnERKNS_10table_baseERKmj(ptr noundef nonnull align 8 dereferenceable(200) %0, ptr noundef nonnull align 8 dereferenceable(36) %1, ptr noundef nonnull align 8 dereferenceable(8) %2, i32 noundef %3) #5 align 2 {
  %5 = alloca ptr, align 8
  %6 = alloca ptr, align 8
  %7 = alloca ptr, align 8
  %8 = alloca i32, align 4
  %9 = alloca ptr, align 8
  %10 = alloca ptr, align 8
  %11 = alloca ptr, align 8
  store ptr %0, ptr %5, align 8, !tbaa !3
  store ptr %1, ptr %6, align 8, !tbaa !375
  store ptr %2, ptr %7, align 8, !tbaa !390
  store i32 %3, ptr %8, align 4, !tbaa !279
  %12 = load ptr, ptr %5, align 8
  call void @llvm.lifetime.start.p0(i64 8, ptr %9) #3
  %13 = load ptr, ptr %6, align 8, !tbaa !375
  %14 = call noundef nonnull align 8 dereferenceable(32) ptr @_ZNK7datalog17tr_infrastructureINS_12table_traitsEE13base_ancestor10get_pluginEv(ptr noundef nonnull align 8 dereferenceable(36) %13)
  %15 = load ptr, ptr %6, align 8, !tbaa !375
  %16 = load ptr, ptr %7, align 8, !tbaa !390
  %17 = load i32, ptr %8, align 4, !tbaa !279
  %18 = load ptr, ptr %14, align 8, !tbaa !8
  %19 = getelementptr inbounds ptr, ptr %18, i64 21
  %20 = load ptr, ptr %19, align 8
  %21 = call noundef ptr %20(ptr noundef nonnull align 8 dereferenceable(32) %14, ptr noundef nonnull align 8 dereferenceable(36) %15, ptr noundef nonnull align 8 dereferenceable(8) %16, i32 noundef %17)
  store ptr %21, ptr %9, align 8, !tbaa !510
  %22 = load ptr, ptr %9, align 8, !tbaa !510
  %23 = icmp ne ptr %22, null
  br i1 %23, label %34, label %24

24:                                               ; preds = %4
  call void @llvm.lifetime.start.p0(i64 8, ptr %10) #3
  %25 = load ptr, ptr %6, align 8, !tbaa !375
  %26 = load ptr, ptr %7, align 8, !tbaa !390
  %27 = load i32, ptr %8, align 4, !tbaa !279
  %28 = call noundef ptr @_ZN7datalog16relation_manager18mk_filter_equal_fnERKNS_10table_baseERKmj(ptr noundef nonnull align 8 dereferenceable(200) %12, ptr noundef nonnull align 8 dereferenceable(36) %25, ptr noundef nonnull align 8 dereferenceable(8) %26, i32 noundef %27)
  store ptr %28, ptr %10, align 8, !tbaa !532
  call void @llvm.lifetime.start.p0(i64 8, ptr %11) #3
  %29 = load ptr, ptr %6, align 8, !tbaa !375
  %30 = call noundef ptr @_ZN7datalog16relation_manager13mk_project_fnERKNS_10table_baseEjPKj(ptr noundef nonnull align 8 dereferenceable(200) %12, ptr noundef nonnull align 8 dereferenceable(36) %29, i32 noundef 1, ptr noundef %8)
  store ptr %30, ptr %11, align 8, !tbaa !510
  %31 = call noalias noundef ptr @_ZN6memory8allocateEm(i64 noundef 24)
  %32 = load ptr, ptr %10, align 8, !tbaa !532
  %33 = load ptr, ptr %11, align 8, !tbaa !510
  call void @_ZN7datalog16relation_manager41default_table_select_equal_and_project_fnC2EPNS_17tr_infrastructureINS_12table_traitsEE10mutator_fnEPNS4_14transformer_fnE(ptr noundef nonnull align 8 dereferenceable(24) %31, ptr noundef %32, ptr noundef %33)
  store ptr %31, ptr %9, align 8, !tbaa !510
  call void @llvm.lifetime.end.p0(i64 8, ptr %11) #3
  call void @llvm.lifetime.end.p0(i64 8, ptr %10) #3
  br label %34

34:                                               ; preds = %24, %4
  %35 = load ptr, ptr %9, align 8, !tbaa !510
  call void @llvm.lifetime.end.p0(i64 8, ptr %9) #3
  ret ptr %35
}