; Function Attrs: mustprogress uwtable
define hidden noundef ptr @_ZN7datalog16relation_manager30mk_select_equal_and_project_fnERKNS_10table_baseERKmj(ptr noundef nonnull readnone align 8 captures(none) dereferenceable(200) %0, ptr noundef nonnull align 8 dereferenceable(36) %1, ptr noundef nonnull align 8 dereferenceable(8) %2, i32 noundef %3) local_unnamed_addr #4 align 2 personality ptr @__gxx_personality_v0 {
  %5 = alloca i32, align 4
  store i32 %3, ptr %5, align 4, !tbaa !34
  %6 = getelementptr inbounds nuw i8, ptr %1, i64 8
  %7 = load ptr, ptr %6, align 8, !tbaa !382
  %8 = load ptr, ptr %7, align 8, !tbaa !3
  %9 = getelementptr inbounds nuw i8, ptr %8, i64 168
  %10 = load ptr, ptr %9, align 8
  %11 = tail call noundef ptr %10(ptr noundef nonnull align 8 dereferenceable(32) %7, ptr noundef nonnull align 8 dereferenceable(36) %1, ptr noundef nonnull align 8 dereferenceable(8) %2, i32 noundef %3)
  %.not = icmp eq ptr %11, null
  br i1 %.not, label %12, label %29

12:                                               ; preds = %4
  %13 = load ptr, ptr %6, align 8, !tbaa !382
  %14 = load ptr, ptr %13, align 8, !tbaa !3
  %15 = getelementptr inbounds nuw i8, ptr %14, i64 144
  %16 = load ptr, ptr %15, align 8
  %17 = tail call noundef ptr %16(ptr noundef nonnull align 8 dereferenceable(32) %13, ptr noundef nonnull align 8 dereferenceable(36) %1, ptr noundef nonnull align 8 dereferenceable(8) %2, i32 noundef %3)
  %.not.i = icmp eq ptr %17, null
  br i1 %.not.i, label %18, label %_ZN7datalog16relation_manager18mk_filter_equal_fnERKNS_10table_baseERKmj.exit

18:                                               ; preds = %12
  %19 = tail call noalias noundef ptr @_ZN6memory8allocateEm(i64 noundef 48)
  %20 = getelementptr inbounds nuw i8, ptr %19, i64 8
  %21 = getelementptr inbounds nuw i8, ptr %19, i64 16
  tail call void @llvm.memset.p0.i64(ptr noundef nonnull align 8 dereferenceable(16) %21, i8 0, i64 16, i1 false)
  store ptr getelementptr inbounds nuw inrange(-16, 48) (i8, ptr @_ZTVN7datalog16relation_manager29default_table_filter_equal_fnE, i64 16), ptr %19, align 8, !tbaa !3
  store ptr getelementptr inbounds nuw inrange(-16, 24) (i8, ptr @_ZTVN7datalog16relation_manager29default_table_filter_equal_fnE, i64 80), ptr %20, align 8, !tbaa !3
  %22 = getelementptr inbounds nuw i8, ptr %19, i64 32
  %23 = load i64, ptr %2, align 8, !tbaa !380
  store i64 %23, ptr %22, align 8, !tbaa !482
  %24 = getelementptr inbounds nuw i8, ptr %19, i64 40
  store i32 %3, ptr %24, align 8, !tbaa !484
  br label %_ZN7datalog16relation_manager18mk_filter_equal_fnERKNS_10table_baseERKmj.exit

_ZN7datalog16relation_manager18mk_filter_equal_fnERKNS_10table_baseERKmj.exit: ; preds = %12, %18
  %.0.i = phi ptr [ %17, %12 ], [ %19, %18 ]
  %25 = call noundef ptr @_ZN7datalog16relation_manager13mk_project_fnERKNS_10table_baseEjPKj(ptr nonnull align 8 poison, ptr noundef nonnull align 8 dereferenceable(36) %1, i32 noundef 1, ptr noundef nonnull %5)
  %26 = call noalias noundef ptr @_ZN6memory8allocateEm(i64 noundef 24)
  store ptr getelementptr inbounds nuw inrange(-16, 24) (i8, ptr @_ZTVN7datalog16relation_manager41default_table_select_equal_and_project_fnE, i64 16), ptr %26, align 8, !tbaa !3
  %27 = getelementptr inbounds nuw i8, ptr %26, i64 8
  store ptr %.0.i, ptr %27, align 8, !tbaa !511
  %28 = getelementptr inbounds nuw i8, ptr %26, i64 16
  store ptr %25, ptr %28, align 8, !tbaa !514
  br label %29

29:                                               ; preds = %_ZN7datalog16relation_manager18mk_filter_equal_fnERKNS_10table_baseERKmj.exit, %4
  %.0 = phi ptr [ %11, %4 ], [ %26, %_ZN7datalog16relation_manager18mk_filter_equal_fnERKNS_10table_baseERKmj.exit ]
  ret ptr %.0
}